; ModuleID = '19/2867.c'
source_filename = "19/2867.c"
target datalayout = "e-m:e-p270:32:32-p271:32:32-p272:64:64-i64:64-f80:128-n8:16:32:64-S128"
target triple = "x86_64-pc-linux-gnu"

@.str = private unnamed_addr constant [4 x i8] c"%s \00", align 1
@.str.1 = private unnamed_addr constant [3 x i8] c"%s\00", align 1

; Function Attrs: noinline nounwind uwtable
define dso_local i32 @main() #0 {
  %1 = alloca i32, align 4
  %2 = alloca [110 x i8], align 16
  %3 = alloca [110 x [100 x i8]], align 16
  %4 = alloca [110 x i8], align 16
  %5 = alloca [110 x i8], align 16
  %6 = alloca [110 x i8], align 16
  %7 = alloca i32, align 4
  %8 = alloca i32, align 4
  %9 = alloca i32, align 4
  %10 = alloca i32, align 4
  %11 = alloca i32, align 4
  store i32 0, i32* %1, align 4
  store i32 0, i32* %7, align 4
  store i32 0, i32* %8, align 4
  store i32 0, i32* %9, align 4
  %12 = getelementptr inbounds [110 x i8], [110 x i8]* %2, i64 0, i64 0
  %13 = call i32 (i8*, ...) bitcast (i32 (...)* @gets to i32 (i8*, ...)*)(i8* %12)
  %14 = getelementptr inbounds [110 x i8], [110 x i8]* %4, i64 0, i64 0
  %15 = call i32 (i8*, ...) bitcast (i32 (...)* @gets to i32 (i8*, ...)*)(i8* %14)
  %16 = getelementptr inbounds [110 x i8], [110 x i8]* %5, i64 0, i64 0
  %17 = call i32 (i8*, ...) bitcast (i32 (...)* @gets to i32 (i8*, ...)*)(i8* %16)
  store i32 0, i32* %7, align 4
  br label %18

18:                                               ; preds = %62, %0
  %19 = load i32, i32* %7, align 4
  %20 = sext i32 %19 to i64
  %21 = getelementptr inbounds [110 x i8], [110 x i8]* %2, i64 0, i64 %20
  %22 = load i8, i8* %21, align 1
  %23 = sext i8 %22 to i32
  %24 = icmp ne i32 %23, 0
  br i1 %24, label %25, label %65

25:                                               ; preds = %18
  %26 = load i32, i32* %7, align 4
  %27 = sext i32 %26 to i64
  %28 = getelementptr inbounds [110 x i8], [110 x i8]* %2, i64 0, i64 %27
  %29 = load i8, i8* %28, align 1
  %30 = sext i8 %29 to i32
  %31 = icmp ne i32 %30, 32
  br i1 %31, label %32, label %44

32:                                               ; preds = %25
  %33 = load i32, i32* %7, align 4
  %34 = sext i32 %33 to i64
  %35 = getelementptr inbounds [110 x i8], [110 x i8]* %2, i64 0, i64 %34
  %36 = load i8, i8* %35, align 1
  %37 = load i32, i32* %8, align 4
  %38 = sext i32 %37 to i64
  %39 = getelementptr inbounds [110 x [100 x i8]], [110 x [100 x i8]]* %3, i64 0, i64 %38
  %40 = load i32, i32* %9, align 4
  %41 = add nsw i32 %40, 1
  store i32 %41, i32* %9, align 4
  %42 = sext i32 %40 to i64
  %43 = getelementptr inbounds [100 x i8], [100 x i8]* %39, i64 0, i64 %42
  store i8 %36, i8* %43, align 1
  br label %61

44:                                               ; preds = %25
  %45 = load i32, i32* %7, align 4
  %46 = sext i32 %45 to i64
  %47 = getelementptr inbounds [110 x i8], [110 x i8]* %2, i64 0, i64 %46
  %48 = load i8, i8* %47, align 1
  %49 = sext i8 %48 to i32
  %50 = icmp eq i32 %49, 32
  br i1 %50, label %51, label %60

51:                                               ; preds = %44
  %52 = load i32, i32* %8, align 4
  %53 = sext i32 %52 to i64
  %54 = getelementptr inbounds [110 x [100 x i8]], [110 x [100 x i8]]* %3, i64 0, i64 %53
  %55 = load i32, i32* %9, align 4
  %56 = sext i32 %55 to i64
  %57 = getelementptr inbounds [100 x i8], [100 x i8]* %54, i64 0, i64 %56
  store i8 0, i8* %57, align 1
  %58 = load i32, i32* %8, align 4
  %59 = add nsw i32 %58, 1
  store i32 %59, i32* %8, align 4
  store i32 0, i32* %9, align 4
  br label %60

60:                                               ; preds = %51, %44
  br label %61

61:                                               ; preds = %60, %32
  br label %62

62:                                               ; preds = %61
  %63 = load i32, i32* %7, align 4
  %64 = add nsw i32 %63, 1
  store i32 %64, i32* %7, align 4
  br label %18

65:                                               ; preds = %18
  store i32 0, i32* %10, align 4
  br label %66

66:                                               ; preds = %87, %65
  %67 = load i32, i32* %10, align 4
  %68 = load i32, i32* %8, align 4
  %69 = add nsw i32 %68, 1
  %70 = icmp slt i32 %67, %69
  br i1 %70, label %71, label %90

71:                                               ; preds = %66
  %72 = load i32, i32* %10, align 4
  %73 = sext i32 %72 to i64
  %74 = getelementptr inbounds [110 x [100 x i8]], [110 x [100 x i8]]* %3, i64 0, i64 %73
  %75 = getelementptr inbounds [100 x i8], [100 x i8]* %74, i64 0, i64 0
  %76 = getelementptr inbounds [110 x i8], [110 x i8]* %4, i64 0, i64 0
  %77 = call i32 @strcmp(i8* %75, i8* %76) #4
  %78 = icmp eq i32 %77, 0
  br i1 %78, label %79, label %86

79:                                               ; preds = %71
  %80 = load i32, i32* %10, align 4
  %81 = sext i32 %80 to i64
  %82 = getelementptr inbounds [110 x [100 x i8]], [110 x [100 x i8]]* %3, i64 0, i64 %81
  %83 = getelementptr inbounds [100 x i8], [100 x i8]* %82, i64 0, i64 0
  %84 = getelementptr inbounds [110 x i8], [110 x i8]* %5, i64 0, i64 0
  %85 = call i8* @strcpy(i8* %83, i8* %84) #5
  br label %86

86:                                               ; preds = %79, %71
  br label %87

87:                                               ; preds = %86
  %88 = load i32, i32* %10, align 4
  %89 = add nsw i32 %88, 1
  store i32 %89, i32* %10, align 4
  br label %66

90:                                               ; preds = %66
  store i32 0, i32* %11, align 4
  br label %91

91:                                               ; preds = %101, %90
  %92 = load i32, i32* %11, align 4
  %93 = load i32, i32* %8, align 4
  %94 = icmp slt i32 %92, %93
  br i1 %94, label %95, label %104

95:                                               ; preds = %91
  %96 = load i32, i32* %11, align 4
  %97 = sext i32 %96 to i64
  %98 = getelementptr inbounds [110 x [100 x i8]], [110 x [100 x i8]]* %3, i64 0, i64 %97
  %99 = getelementptr inbounds [100 x i8], [100 x i8]* %98, i64 0, i64 0
  %100 = call i32 (i8*, ...) @printf(i8* getelementptr inbounds ([4 x i8], [4 x i8]* @.str, i64 0, i64 0), i8* %99)
  br label %101

101:                                              ; preds = %95
  %102 = load i32, i32* %11, align 4
  %103 = add nsw i32 %102, 1
  store i32 %103, i32* %11, align 4
  br label %91

104:                                              ; preds = %91
  %105 = load i32, i32* %8, align 4
  %106 = sext i32 %105 to i64
  %107 = getelementptr inbounds [110 x [100 x i8]], [110 x [100 x i8]]* %3, i64 0, i64 %106
  %108 = getelementptr inbounds [100 x i8], [100 x i8]* %107, i64 0, i64 0
  %109 = call i32 (i8*, ...) @printf(i8* getelementptr inbounds ([3 x i8], [3 x i8]* @.str.1, i64 0, i64 0), i8* %108)
  ret i32 0
}

declare dso_local i32 @gets(...) #1

; Function Attrs: nounwind readonly
declare dso_local i32 @strcmp(i8*, i8*) #2

; Function Attrs: nounwind
declare dso_local i8* @strcpy(i8*, i8*) #3

declare dso_local i32 @printf(i8*, ...) #1


!llvm.module.flags = !{!0}
!llvm.ident = !{!1}

!0 = !{i32 1, !"wchar_size", i32 4}
!1 = !{!"clang version 10.0.0-4ubuntu1 "}
